target datalayout = "e-m:e-p270:32:32-p271:32:32-p272:64:64-i64:64-i128:128-f80:128-n8:16:32:64-S128"
target triple = "x86_64-pc-linux-gnu"

; Function Attrs: mustprogress nounwind uwtable
define void @_Z14DosSlashToUnixPKwPwm(ptr noundef %0, ptr noundef %1, i64 noundef %2) #2 {
  %4 = alloca ptr, align 8
  %5 = alloca ptr, align 8
  %6 = alloca i64, align 8
  %7 = alloca i64, align 8
  store ptr %0, ptr %4, align 8
  store ptr %1, ptr %5, align 8
  store i64 %2, ptr %6, align 8
  store i64 0, ptr %7, align 8
  br label %8

8:                                                ; preds = %38, %3
  %9 = load i64, ptr %7, align 8
  %10 = load i64, ptr %6, align 8
  %11 = sub i64 %10, 1
  %12 = icmp ult i64 %9, %11
  br i1 %12, label %13, label %19

13:                                               ; preds = %8
  %14 = load ptr, ptr %4, align 8
  %15 = load i64, ptr %7, align 8
  %16 = getelementptr inbounds i32, ptr %14, i64 %15
  %17 = load i32, ptr %16, align 4
  %18 = icmp ne i32 %17, 0
  br label %19

19:                                               ; preds = %13, %8
  %20 = phi i1 [ false, %8 ], [ %18, %13 ]
  br i1 %20, label %21, label %41

21:                                               ; preds = %19
  %22 = load ptr, ptr %4, align 8
  %23 = load i64, ptr %7, align 8
  %24 = getelementptr inbounds i32, ptr %22, i64 %23
  %25 = load i32, ptr %24, align 4
  %26 = icmp eq i32 %25, 92
  br i1 %26, label %27, label %28

27:                                               ; preds = %21
  br label %33

28:                                               ; preds = %21
  %29 = load ptr, ptr %4, align 8
  %30 = load i64, ptr %7, align 8
  %31 = getelementptr inbounds i32, ptr %29, i64 %30
  %32 = load i32, ptr %31, align 4
  br label %33

33:                                               ; preds = %28, %27
  %34 = phi i32 [ 47, %27 ], [ %32, %28 ]
  %35 = load ptr, ptr %5, align 8
  %36 = load i64, ptr %7, align 8
  %37 = getelementptr inbounds i32, ptr %35, i64 %36
  store i32 %34, ptr %37, align 4
  br label %38

38:                                               ; preds = %33
  %39 = load i64, ptr %7, align 8
  %40 = add i64 %39, 1
  store i64 %40, ptr %7, align 8
  br label %8, !llvm.loop !22

41:                                               ; preds = %19
  %42 = load ptr, ptr %5, align 8
  %43 = load i64, ptr %7, align 8
  %44 = getelementptr inbounds i32, ptr %42, i64 %43
  store i32 0, ptr %44, align 4
  ret void
}