; Function Attrs: mustprogress nofree norecurse nosync nounwind memory(argmem: readwrite) uwtable
define void @_Z14DosSlashToUnixPKwPwm(ptr noundef readonly captures(none) %0, ptr noundef writeonly captures(none) %1, i64 noundef %2) local_unnamed_addr #13 {
  %4 = add i64 %2, -1
  %.not = icmp eq i64 %4, 0
  br i1 %.not, label %.critedge, label %.lr.ph

.lr.ph:                                           ; preds = %3, %8
  %.013 = phi i64 [ %11, %8 ], [ 0, %3 ]
  %5 = getelementptr inbounds i32, ptr %0, i64 %.013
  %6 = load i32, ptr %5, align 4
  switch i32 %6, label %7 [
    i32 0, label %.critedge
    i32 92, label %8
  ]

7:                                                ; preds = %.lr.ph
  br label %8

8:                                                ; preds = %.lr.ph, %7
  %9 = phi i32 [ %6, %7 ], [ 47, %.lr.ph ]
  %10 = getelementptr inbounds i32, ptr %1, i64 %.013
  store i32 %9, ptr %10, align 4
  %11 = add nuw i64 %.013, 1
  %exitcond.not = icmp eq i64 %11, %4
  br i1 %exitcond.not, label %.critedge, label %.lr.ph, !llvm.loop !22

.critedge:                                        ; preds = %8, %.lr.ph, %3
  %.0.lcssa = phi i64 [ 0, %3 ], [ %.013, %.lr.ph ], [ %4, %8 ]
  %12 = getelementptr inbounds i32, ptr %1, i64 %.0.lcssa
  store i32 0, ptr %12, align 4
  ret void
}